; Function Attrs: mustprogress nounwind uwtable
define void @_ZN6icu_7513LocaleMatcher7BuilderD2Ev(ptr nocapture noundef nonnull readonly align 8 dereferenceable(64) %this) unnamed_addr #1 align 2 {
entry:
  %supportedLocales_ = getelementptr inbounds i8, ptr %this, i64 8
  %0 = load ptr, ptr %supportedLocales_, align 8
  %isnull = icmp eq ptr %0, null
  br i1 %isnull, label %delete.end, label %delete.notnull

delete.notnull:                                   ; preds = %entry
  %vtable = load ptr, ptr %0, align 8
  %vfn = getelementptr inbounds i8, ptr %vtable, i64 8
  %1 = load ptr, ptr %vfn, align 8
  tail call void %1(ptr noundef nonnull align 8 dereferenceable(40) %0) #15
  br label %delete.end

delete.end:                                       ; preds = %delete.notnull, %entry
  %defaultLocale_ = getelementptr inbounds i8, ptr %this, i64 24
  %2 = load ptr, ptr %defaultLocale_, align 8
  %isnull2 = icmp eq ptr %2, null
  br i1 %isnull2, label %delete.end6, label %delete.notnull3

delete.notnull3:                                  ; preds = %delete.end
  %vtable4 = load ptr, ptr %2, align 8
  %vfn5 = getelementptr inbounds i8, ptr %vtable4, i64 8
  %3 = load ptr, ptr %vfn5, align 8
  tail call void %3(ptr noundef nonnull align 8 dereferenceable(217) %2) #15
  br label %delete.end6

delete.end6:                                      ; preds = %delete.notnull3, %delete.end
  %maxDistanceDesired_ = getelementptr inbounds i8, ptr %this, i64 48
  %4 = load ptr, ptr %maxDistanceDesired_, align 8
  %isnull7 = icmp eq ptr %4, null
  br i1 %isnull7, label %delete.end11, label %delete.notnull8

delete.notnull8:                                  ; preds = %delete.end6
  %vtable9 = load ptr, ptr %4, align 8
  %vfn10 = getelementptr inbounds i8, ptr %vtable9, i64 8
  %5 = load ptr, ptr %vfn10, align 8
  tail call void %5(ptr noundef nonnull align 8 dereferenceable(217) %4) #15
  br label %delete.end11

delete.end11:                                     ; preds = %delete.notnull8, %delete.end6
  %maxDistanceSupported_ = getelementptr inbounds i8, ptr %this, i64 56
  %6 = load ptr, ptr %maxDistanceSupported_, align 8
  %isnull12 = icmp eq ptr %6, null
  br i1 %isnull12, label %delete.end16, label %delete.notnull13

delete.notnull13:                                 ; preds = %delete.end11
  %vtable14 = load ptr, ptr %6, align 8
  %vfn15 = getelementptr inbounds i8, ptr %vtable14, i64 8
  %7 = load ptr, ptr %vfn15, align 8
  tail call void %7(ptr noundef nonnull align 8 dereferenceable(217) %6) #15
  br label %delete.end16

delete.end16:                                     ; preds = %delete.notnull13, %delete.end11
  ret void
}